(itab_master
Tab
p1
(dp2
S'cur_debaters'
p3
(dp4
I4000
(iteams
Debater
p5
(dp6
S'deb_ranks'
p7
(lp8
NaNaNaNaNasS'deb_nov'
p9
I00
sS'deb_speaks'
p10
(lp11
NaNaNaNaNasS'deb_name'
p12
VAdam Goldstein
p13
sS'deb_id'
p14
I4000
sbsI4001
(iteams
Debater
p15
(dp16
g7
(lp17
NaNaNaNaNasg9
I00
sg10
(lp18
NaNaNaNaNasg12
VKathleen Clark Adams
p19
sg14
I4001
sbsI4002
(iteams
Debater
p20
(dp21
g7
(lp22
NaNaNaNaNasg9
I00
sg10
(lp23
NaNaNaNaNasg12
VShireen
p24
sg14
I4002
sbsI4003
(iteams
Debater
p25
(dp26
g7
(lp27
NaNaNaNaNasg9
I00
sg10
(lp28
NaNaNaNaNasg12
VPeter
p29
sg14
I4003
sbssS'round_id'
p30
I5000
sS'cur_rounds'
p31
(dp32
sS'cur_debater_id'
p33
I4004
sS'cur_schools'
p34
(dp35
I2000
VMIT
p36
sI2001
VPrinceton
p37
sI2002
VHarvard
p38
sI2003
VYale
p39
sI2004
VBoston University
p40
ssS'cur_teams'
p41
(dp42
I3000
(iteams
Team
p43
(dp44
S'opps'
p45
I0
sS'teams_hit'
p46
(lp47
sS'win'
p48
(lp49
I0
aI0
aI0
aI0
aI0
asS'team_scratches'
p50
(lp51
I1002
asS'hit_pull_up'
p52
I00
sS'rounds'
p53
(lp54
NaNaNaNaNasS'debater1'
p55
g5
sS'judges_had'
p56
(lp57
sS'team_id'
p58
I3000
sS'seed'
p59
I3
sS'tab_scratches'
p60
(lp61
I1000
aI1001
asS'debater2'
p62
g15
sS'pull_up'
p63
I00
sS'tot_rounds'
p64
I5
sS'team_name'
p65
VMIT A
p66
sS'bye'
p67
I00
sS'school_id'
p68
I2000
sS'govs'
p69
I0
sbsI3001
(iteams
Team
p70
(dp71
g45
I0
sg46
(lp72
sg48
(lp73
I0
aI0
aI0
aI0
aI0
asg50
(lp74
I1002
asg52
I00
sg53
(lp75
NaNaNaNaNasg55
g20
sg56
(lp76
sg58
I3001
sg59
I1
sg60
(lp77
I1000
aI1001
asg62
g25
sg63
I00
sg64
I5
sg65
VMIT B
p78
sg67
I00
sg68
I2000
sg69
I0
sbssS'cur_school_id'
p79
I2005
sS'cur_judge_id'
p80
I1003
sS'cur_room_id'
p81
I6000
sS'cur_round'
p82
I1
sg64
I5
sS'cur_team_id'
p83
I3002
sS'cur_judges'
p84
(dp85
I1000
(ijudges
Judge
p86
(dp87
S'judge_name'
p88
VJoey Lynch
p89
sS'judge_tab_scratches'
p90
(lp91
I2000
aI3000
aI3001
asS'judge_teams_judged'
p92
(lp93
sS'judge_rank'
p94
F10
sS'judge_school_id'
p95
I2000
sS'judge_checked_in'
p96
(lp97
I00
aI00
aI00
aI00
aI00
asS'judge_team_scratches'
p98
(lp99
sS'judge_paired_in'
p100
(lp101
I00
aI00
aI00
aI00
aI00
asS'judge_id'
p102
I1000
sbsI1001
(ijudges
Judge
p103
(dp104
g88
VJulia Boortz
p105
sg90
(lp106
I2000
aI3000
aI3001
asg92
(lp107
sg94
F10
sg95
I2000
sg96
(lp108
I00
aI00
aI00
aI00
aI00
asg98
(lp109
sg100
(lp110
I00
aI00
aI00
aI00
aI00
asg102
I1001
sbsI1002
(ijudges
Judge
p111
(dp112
g88
VJosh Bone
p113
sg90
(lp114
I2003
asg92
(lp115
sg94
F12
sg95
I2003
sg96
(lp116
I00
aI00
aI00
aI00
aI00
asg98
(lp117
I3000
aI3001
asg100
(lp118
I00
aI00
aI00
aI00
aI00
asg102
I1002
sbssS'cur_rooms'
p119
(dp120
sb.